target datalayout = "e-m:e-p270:32:32-p271:32:32-p272:64:64-i64:64-i128:128-f80:128-n8:16:32:64-S128"
target triple = "x86_64-pc-linux-gnu"

%"class.OpenImageIO::v3_1_0::DeepData" = type <{ ptr, i64, i32, [4 x i8] }>

; Function Attrs: mustprogress nounwind uwtable
define void @_ZN11OpenImageIO6v3_1_08DeepDataC2EOS1_(ptr noundef nonnull align 8 dereferenceable(20) %0, ptr noundef nonnull align 8 dereferenceable(20) %1) unnamed_addr #5 align 2 {
  %3 = alloca ptr, align 8
  %4 = alloca ptr, align 8
  store ptr %0, ptr %3, align 8, !tbaa !3
  store ptr %1, ptr %4, align 8, !tbaa !3
  %5 = load ptr, ptr %3, align 8
  %6 = getelementptr inbounds nuw %"class.OpenImageIO::v3_1_0::DeepData", ptr %5, i32 0, i32 0
  store ptr null, ptr %6, align 8, !tbaa !8
  %7 = getelementptr inbounds nuw %"class.OpenImageIO::v3_1_0::DeepData", ptr %5, i32 0, i32 1
  store i64 0, ptr %7, align 8, !tbaa !13
  %8 = getelementptr inbounds nuw %"class.OpenImageIO::v3_1_0::DeepData", ptr %5, i32 0, i32 2
  store i32 0, ptr %8, align 8, !tbaa !14
  %9 = load ptr, ptr %4, align 8, !tbaa !3
  %10 = getelementptr inbounds nuw %"class.OpenImageIO::v3_1_0::DeepData", ptr %9, i32 0, i32 1
  %11 = load i64, ptr %10, align 8, !tbaa !13
  %12 = getelementptr inbounds nuw %"class.OpenImageIO::v3_1_0::DeepData", ptr %5, i32 0, i32 1
  store i64 %11, ptr %12, align 8, !tbaa !13
  %13 = load ptr, ptr %4, align 8, !tbaa !3
  %14 = getelementptr inbounds nuw %"class.OpenImageIO::v3_1_0::DeepData", ptr %13, i32 0, i32 2
  %15 = load i32, ptr %14, align 8, !tbaa !14
  %16 = getelementptr inbounds nuw %"class.OpenImageIO::v3_1_0::DeepData", ptr %5, i32 0, i32 2
  store i32 %15, ptr %16, align 8, !tbaa !14
  %17 = load ptr, ptr %4, align 8, !tbaa !3
  %18 = getelementptr inbounds nuw %"class.OpenImageIO::v3_1_0::DeepData", ptr %17, i32 0, i32 0
  %19 = load ptr, ptr %18, align 8, !tbaa !8
  %20 = getelementptr inbounds nuw %"class.OpenImageIO::v3_1_0::DeepData", ptr %5, i32 0, i32 0
  store ptr %19, ptr %20, align 8, !tbaa !8
  %21 = load ptr, ptr %4, align 8, !tbaa !3
  %22 = getelementptr inbounds nuw %"class.OpenImageIO::v3_1_0::DeepData", ptr %21, i32 0, i32 0
  store ptr null, ptr %22, align 8, !tbaa !8
  ret void
}