; Function Attrs: mustprogress nofree norecurse nosync nounwind willreturn memory(argmem: readwrite) uwtable
define void @_ZN11OpenImageIO6v3_1_08DeepDataC2EOS1_(ptr noundef nonnull writeonly align 8 captures(none) dereferenceable(20) initializes((0, 20)) %0, ptr noundef nonnull align 8 captures(none) dereferenceable(20) %1) unnamed_addr #9 align 2 {
  %3 = getelementptr inbounds nuw i8, ptr %0, i64 8
  %4 = getelementptr inbounds nuw i8, ptr %0, i64 16
  %5 = getelementptr inbounds nuw i8, ptr %1, i64 8
  tail call void @llvm.memset.p0.i64(ptr noundef nonnull align 8 dereferenceable(20) %0, i8 0, i64 20, i1 false)
  %6 = load i64, ptr %5, align 8, !tbaa !62
  store i64 %6, ptr %3, align 8, !tbaa !62
  %7 = getelementptr inbounds nuw i8, ptr %1, i64 16
  %8 = load i32, ptr %7, align 8, !tbaa !63
  store i32 %8, ptr %4, align 8, !tbaa !63
  %9 = load ptr, ptr %1, align 8, !tbaa !35
  store ptr %9, ptr %0, align 8, !tbaa !35
  store ptr null, ptr %1, align 8, !tbaa !35
  ret void
}